target datalayout = "e-m:e-p270:32:32-p271:32:32-p272:64:64-i64:64-i128:128-f80:128-n8:16:32:64-S128"
target triple = "x86_64-pc-linux-gnu"

%struct.png_struct_def = type { [1 x %struct.__jmp_buf_tag], ptr, ptr, i64, ptr, ptr, ptr, ptr, ptr, ptr, ptr, ptr, ptr, i8, i8, i32, i32, i32, i32, %struct.z_stream_s, ptr, i32, i32, i32, i32, i32, i32, i32, i32, i32, i32, i32, i32, i32, i32, i32, i32, i32, i32, i32, i32, i64, i32, i32, i32, ptr, ptr, ptr, ptr, i64, i32, i32, ptr, i16, i32, i16, i8, i8, i8, i8, i8, i8, i8, i8, i8, i8, i8, i8, i8, i8, i8, i16, i8, i32, %struct.png_color_16_struct, %struct.png_color_16_struct, ptr, i32, i32, i32, i32, ptr, ptr, ptr, ptr, ptr, ptr, %struct.png_color_8_struct, %struct.png_color_8_struct, ptr, %struct.png_color_16_struct, ptr, ptr, ptr, ptr, ptr, ptr, ptr, ptr, ptr, i32, i32, i64, i64, i64, i64, i32, i32, ptr, ptr, i32, [29 x i8], i32, ptr, ptr, i32, i32, ptr, i8, i8, i16, i16, ptr, i32, i8, ptr, ptr, ptr, ptr, ptr, ptr, ptr, i8, i32, i32, i32, i64, %struct.png_unknown_chunk_t, i64, ptr, i64, i32, i32, ptr, [4 x ptr], %struct.png_colorspace }
%struct.__jmp_buf_tag = type { [8 x i64], i32, %struct.__sigset_t }
%struct.__sigset_t = type { [16 x i64] }
%struct.z_stream_s = type { ptr, i32, i64, ptr, i32, i64, ptr, ptr, ptr, ptr, ptr, i32, i64, i64 }
%struct.png_color_8_struct = type { i8, i8, i8, i8, i8 }
%struct.png_color_16_struct = type { i8, i16, i16, i16, i16 }
%struct.png_unknown_chunk_t = type { [5 x i8], ptr, i64, i8 }
%struct.png_colorspace = type { i32, %struct.png_xy, %struct.png_XYZ, i16, i16 }
%struct.png_xy = type { i32, i32, i32, i32, i32, i32, i32, i32 }
%struct.png_XYZ = type { i32, i32, i32, i32, i32, i32, i32, i32, i32 }
%struct.png_info_def = type { i32, i32, i32, i64, ptr, i16, i16, i8, i8, i8, i8, i8, i8, i8, i8, [8 x i8], %struct.png_colorspace, ptr, ptr, i32, i32, i32, ptr, %struct.png_time_struct, %struct.png_color_8_struct, ptr, %struct.png_color_16_struct, %struct.png_color_16_struct, i32, i32, i8, i32, i32, i8, i32, ptr, ptr, ptr, ptr, i32, i32, ptr, ptr, i8, i8, i32, ptr, i32, ptr, i32, i8, ptr, ptr, ptr }
%struct.png_time_struct = type { i16, i8, i8, i8, i8, i8 }

@.str.3 = private unnamed_addr constant [58 x i8] c"png_read_update_info/png_start_read_image: duplicate call\00", align 1
@.str.13 = private unnamed_addr constant [49 x i8] c"Image is too high to process with png_read_png()\00", align 1

; Function Attrs: nounwind uwtable
define void @png_read_update_info(ptr noalias noundef %0, ptr noalias noundef %1) #0 {
  %3 = alloca ptr, align 8
  %4 = alloca ptr, align 8
  store ptr %0, ptr %3, align 8
  store ptr %1, ptr %4, align 8
  %5 = load ptr, ptr %3, align 8
  %6 = icmp ne ptr %5, null
  br i1 %6, label %7, label %20

7:                                                ; preds = %2
  %8 = load ptr, ptr %3, align 8
  %9 = getelementptr inbounds %struct.png_struct_def, ptr %8, i32 0, i32 16
  %10 = load i32, ptr %9, align 8
  %11 = and i32 %10, 64
  %12 = icmp eq i32 %11, 0
  br i1 %12, label %13, label %17

13:                                               ; preds = %7
  %14 = load ptr, ptr %3, align 8
  call void @png_read_start_row(ptr noundef %14)
  %15 = load ptr, ptr %3, align 8
  %16 = load ptr, ptr %4, align 8
  call void @png_read_transform_info(ptr noundef %15, ptr noundef %16)
  br label %19

17:                                               ; preds = %7
  %18 = load ptr, ptr %3, align 8
  call void @png_app_error(ptr noundef %18, ptr noundef @.str.3)
  br label %19

19:                                               ; preds = %17, %13
  br label %20

20:                                               ; preds = %19, %2
  ret void
}

; Function Attrs: nounwind uwtable
define void @png_read_png(ptr noalias noundef %0, ptr noalias noundef %1, i32 noundef %2, ptr noundef %3) #0 {
  %5 = alloca ptr, align 8
  %6 = alloca ptr, align 8
  %7 = alloca i32, align 4
  %8 = alloca ptr, align 8
  %9 = alloca i32, align 4
  store ptr %0, ptr %5, align 8
  store ptr %1, ptr %6, align 8
  store i32 %2, ptr %7, align 4
  store ptr %3, ptr %8, align 8
  %10 = load ptr, ptr %5, align 8
  %11 = icmp eq ptr %10, null
  br i1 %11, label %15, label %12

12:                                               ; preds = %4
  %13 = load ptr, ptr %6, align 8
  %14 = icmp eq ptr %13, null
  br i1 %14, label %15, label %16

15:                                               ; preds = %12, %4
  br label %194

16:                                               ; preds = %12
  %17 = load ptr, ptr %5, align 8
  %18 = load ptr, ptr %6, align 8
  call void @png_read_info(ptr noundef %17, ptr noundef %18)
  %19 = load ptr, ptr %6, align 8
  %20 = getelementptr inbounds %struct.png_info_def, ptr %19, i32 0, i32 1
  %21 = load i32, ptr %20, align 4
  %22 = zext i32 %21 to i64
  %23 = icmp ugt i64 %22, 536870911
  br i1 %23, label %24, label %26

24:                                               ; preds = %16
  %25 = load ptr, ptr %5, align 8
  call void @png_error(ptr noundef %25, ptr noundef @.str.13) #8
  unreachable

26:                                               ; preds = %16
  %27 = load i32, ptr %7, align 4
  %28 = and i32 %27, 32768
  %29 = icmp ne i32 %28, 0
  br i1 %29, label %30, label %32

30:                                               ; preds = %26
  %31 = load ptr, ptr %5, align 8
  call void @png_set_scale_16(ptr noundef %31)
  br label %32

32:                                               ; preds = %30, %26
  %33 = load i32, ptr %7, align 4
  %34 = and i32 %33, 1
  %35 = icmp ne i32 %34, 0
  br i1 %35, label %36, label %38

36:                                               ; preds = %32
  %37 = load ptr, ptr %5, align 8
  call void @png_set_strip_16(ptr noundef %37)
  br label %38

38:                                               ; preds = %36, %32
  %39 = load i32, ptr %7, align 4
  %40 = and i32 %39, 2
  %41 = icmp ne i32 %40, 0
  br i1 %41, label %42, label %44

42:                                               ; preds = %38
  %43 = load ptr, ptr %5, align 8
  call void @png_set_strip_alpha(ptr noundef %43)
  br label %44

44:                                               ; preds = %42, %38
  %45 = load i32, ptr %7, align 4
  %46 = and i32 %45, 4
  %47 = icmp ne i32 %46, 0
  br i1 %47, label %48, label %50

48:                                               ; preds = %44
  %49 = load ptr, ptr %5, align 8
  call void @png_set_packing(ptr noundef %49)
  br label %50

50:                                               ; preds = %48, %44
  %51 = load i32, ptr %7, align 4
  %52 = and i32 %51, 8
  %53 = icmp ne i32 %52, 0
  br i1 %53, label %54, label %56

54:                                               ; preds = %50
  %55 = load ptr, ptr %5, align 8
  call void @png_set_packswap(ptr noundef %55)
  br label %56

56:                                               ; preds = %54, %50
  %57 = load i32, ptr %7, align 4
  %58 = and i32 %57, 16
  %59 = icmp ne i32 %58, 0
  br i1 %59, label %60, label %62

60:                                               ; preds = %56
  %61 = load ptr, ptr %5, align 8
  call void @png_set_expand(ptr noundef %61)
  br label %62

62:                                               ; preds = %60, %56
  %63 = load i32, ptr %7, align 4
  %64 = and i32 %63, 32
  %65 = icmp ne i32 %64, 0
  br i1 %65, label %66, label %68

66:                                               ; preds = %62
  %67 = load ptr, ptr %5, align 8
  call void @png_set_invert_mono(ptr noundef %67)
  br label %68

68:                                               ; preds = %66, %62
  %69 = load i32, ptr %7, align 4
  %70 = and i32 %69, 64
  %71 = icmp ne i32 %70, 0
  br i1 %71, label %72, label %83

72:                                               ; preds = %68
  %73 = load ptr, ptr %6, align 8
  %74 = getelementptr inbounds %struct.png_info_def, ptr %73, i32 0, i32 2
  %75 = load i32, ptr %74, align 8
  %76 = and i32 %75, 2
  %77 = icmp ne i32 %76, 0
  br i1 %77, label %78, label %82

78:                                               ; preds = %72
  %79 = load ptr, ptr %5, align 8
  %80 = load ptr, ptr %6, align 8
  %81 = getelementptr inbounds %struct.png_info_def, ptr %80, i32 0, i32 24
  call void @png_set_shift(ptr noundef %79, ptr noundef %81)
  br label %82

82:                                               ; preds = %78, %72
  br label %83

83:                                               ; preds = %82, %68
  %84 = load i32, ptr %7, align 4
  %85 = and i32 %84, 128
  %86 = icmp ne i32 %85, 0
  br i1 %86, label %87, label %89

87:                                               ; preds = %83
  %88 = load ptr, ptr %5, align 8
  call void @png_set_bgr(ptr noundef %88)
  br label %89

89:                                               ; preds = %87, %83
  %90 = load i32, ptr %7, align 4
  %91 = and i32 %90, 256
  %92 = icmp ne i32 %91, 0
  br i1 %92, label %93, label %95

93:                                               ; preds = %89
  %94 = load ptr, ptr %5, align 8
  call void @png_set_swap_alpha(ptr noundef %94)
  br label %95

95:                                               ; preds = %93, %89
  %96 = load i32, ptr %7, align 4
  %97 = and i32 %96, 512
  %98 = icmp ne i32 %97, 0
  br i1 %98, label %99, label %101

99:                                               ; preds = %95
  %100 = load ptr, ptr %5, align 8
  call void @png_set_swap(ptr noundef %100)
  br label %101

101:                                              ; preds = %99, %95
  %102 = load i32, ptr %7, align 4
  %103 = and i32 %102, 1024
  %104 = icmp ne i32 %103, 0
  br i1 %104, label %105, label %107

105:                                              ; preds = %101
  %106 = load ptr, ptr %5, align 8
  call void @png_set_invert_alpha(ptr noundef %106)
  br label %107

107:                                              ; preds = %105, %101
  %108 = load i32, ptr %7, align 4
  %109 = and i32 %108, 8192
  %110 = icmp ne i32 %109, 0
  br i1 %110, label %111, label %113

111:                                              ; preds = %107
  %112 = load ptr, ptr %5, align 8
  call void @png_set_gray_to_rgb(ptr noundef %112)
  br label %113

113:                                              ; preds = %111, %107
  %114 = load i32, ptr %7, align 4
  %115 = and i32 %114, 16384
  %116 = icmp ne i32 %115, 0
  br i1 %116, label %117, label %119

117:                                              ; preds = %113
  %118 = load ptr, ptr %5, align 8
  call void @png_set_expand_16(ptr noundef %118)
  br label %119

119:                                              ; preds = %117, %113
  %120 = load ptr, ptr %5, align 8
  %121 = call i32 @png_set_interlace_handling(ptr noundef %120)
  %122 = load ptr, ptr %5, align 8
  %123 = load ptr, ptr %6, align 8
  call void @png_read_update_info(ptr noundef %122, ptr noundef %123)
  %124 = load ptr, ptr %5, align 8
  %125 = load ptr, ptr %6, align 8
  call void @png_free_data(ptr noundef %124, ptr noundef %125, i32 noundef 64, i32 noundef 0)
  %126 = load ptr, ptr %6, align 8
  %127 = getelementptr inbounds %struct.png_info_def, ptr %126, i32 0, i32 53
  %128 = load ptr, ptr %127, align 8
  %129 = icmp eq ptr %128, null
  br i1 %129, label %130, label %183

130:                                              ; preds = %119
  %131 = load ptr, ptr %5, align 8
  %132 = load ptr, ptr %6, align 8
  %133 = getelementptr inbounds %struct.png_info_def, ptr %132, i32 0, i32 1
  %134 = load i32, ptr %133, align 4
  %135 = zext i32 %134 to i64
  %136 = mul i64 %135, 8
  %137 = call noalias ptr @png_malloc(ptr noundef %131, i64 noundef %136)
  %138 = load ptr, ptr %6, align 8
  %139 = getelementptr inbounds %struct.png_info_def, ptr %138, i32 0, i32 53
  store ptr %137, ptr %139, align 8
  store i32 0, ptr %9, align 4
  br label %140

140:                                              ; preds = %153, %130
  %141 = load i32, ptr %9, align 4
  %142 = load ptr, ptr %6, align 8
  %143 = getelementptr inbounds %struct.png_info_def, ptr %142, i32 0, i32 1
  %144 = load i32, ptr %143, align 4
  %145 = icmp ult i32 %141, %144
  br i1 %145, label %146, label %156

146:                                              ; preds = %140
  %147 = load ptr, ptr %6, align 8
  %148 = getelementptr inbounds %struct.png_info_def, ptr %147, i32 0, i32 53
  %149 = load ptr, ptr %148, align 8
  %150 = load i32, ptr %9, align 4
  %151 = zext i32 %150 to i64
  %152 = getelementptr inbounds ptr, ptr %149, i64 %151
  store ptr null, ptr %152, align 8
  br label %153

153:                                              ; preds = %146
  %154 = load i32, ptr %9, align 4
  %155 = add i32 %154, 1
  store i32 %155, ptr %9, align 4
  br label %140, !llvm.loop !13

156:                                              ; preds = %140
  %157 = load ptr, ptr %6, align 8
  %158 = getelementptr inbounds %struct.png_info_def, ptr %157, i32 0, i32 45
  %159 = load i32, ptr %158, align 4
  %160 = or i32 %159, 64
  store i32 %160, ptr %158, align 4
  store i32 0, ptr %9, align 4
  br label %161

161:                                              ; preds = %179, %156
  %162 = load i32, ptr %9, align 4
  %163 = load ptr, ptr %6, align 8
  %164 = getelementptr inbounds %struct.png_info_def, ptr %163, i32 0, i32 1
  %165 = load i32, ptr %164, align 4
  %166 = icmp ult i32 %162, %165
  br i1 %166, label %167, label %182

167:                                              ; preds = %161
  %168 = load ptr, ptr %5, align 8
  %169 = load ptr, ptr %6, align 8
  %170 = getelementptr inbounds %struct.png_info_def, ptr %169, i32 0, i32 3
  %171 = load i64, ptr %170, align 8
  %172 = call noalias ptr @png_malloc(ptr noundef %168, i64 noundef %171)
  %173 = load ptr, ptr %6, align 8
  %174 = getelementptr inbounds %struct.png_info_def, ptr %173, i32 0, i32 53
  %175 = load ptr, ptr %174, align 8
  %176 = load i32, ptr %9, align 4
  %177 = zext i32 %176 to i64
  %178 = getelementptr inbounds ptr, ptr %175, i64 %177
  store ptr %172, ptr %178, align 8
  br label %179

179:                                              ; preds = %167
  %180 = load i32, ptr %9, align 4
  %181 = add i32 %180, 1
  store i32 %181, ptr %9, align 4
  br label %161, !llvm.loop !14

182:                                              ; preds = %161
  br label %183

183:                                              ; preds = %182, %119
  %184 = load ptr, ptr %5, align 8
  %185 = load ptr, ptr %6, align 8
  %186 = getelementptr inbounds %struct.png_info_def, ptr %185, i32 0, i32 53
  %187 = load ptr, ptr %186, align 8
  call void @png_read_image(ptr noundef %184, ptr noundef %187)
  %188 = load ptr, ptr %6, align 8
  %189 = getelementptr inbounds %struct.png_info_def, ptr %188, i32 0, i32 2
  %190 = load i32, ptr %189, align 8
  %191 = or i32 %190, 32768
  store i32 %191, ptr %189, align 8
  %192 = load ptr, ptr %5, align 8
  %193 = load ptr, ptr %6, align 8
  call void @png_read_end(ptr noundef %192, ptr noundef %193)
  br label %194

194:                                              ; preds = %183, %15
  ret void
}